target datalayout = "e-m:e-p270:32:32-p271:32:32-p272:64:64-i64:64-i128:128-f80:128-n8:16:32:64-S128"
target triple = "x86_64-pc-linux-gnu"

%struct.EState = type { i32, i32, ptr, ptr, ptr, i32, ptr, ptr, ptr, ptr, ptr, ptr, ptr, ptr, ptr, ptr, i32, ptr, ptr, ptr, ptr, ptr, ptr, ptr, ptr, ptr, ptr, i64, i64, i32, i32, i8, ptr, ptr, ptr, ptr, ptr, i8, i32, i32, ptr, i32, ptr, ptr, ptr, ptr }
%struct.List = type { i32, i32, i32, ptr, [0 x %union.ListCell] }
%union.ListCell = type { ptr }
%struct.nameData = type { [64 x i8] }
%struct.RelationData = type { %struct.RelFileLocator, ptr, i32, i32, i8, i8, i8, i8, i8, i32, i32, i32, i32, ptr, ptr, i32, %struct.LockInfoData, ptr, ptr, ptr, ptr, ptr, i8, ptr, ptr, ptr, ptr, ptr, ptr, i32, ptr, i8, ptr, ptr, i32, i8, i32, ptr, i8, ptr, ptr, ptr, ptr, ptr, ptr, ptr, i32, ptr, ptr, ptr, ptr, ptr, ptr, ptr, ptr, ptr, ptr, ptr, ptr, ptr, ptr, ptr, ptr, ptr, ptr, ptr, i32, i8, ptr }
%struct.RelFileLocator = type { i32, i32, i32 }
%struct.LockInfoData = type { %struct.LockRelId }
%struct.LockRelId = type { i32, i32 }
%struct.FormData_pg_class = type { i32, %struct.nameData, i32, i32, i32, i32, i32, i32, i32, i32, float, i32, i32, i8, i8, i8, i8, i16, i16, i8, i8, i8, i8, i8, i8, i8, i8, i32, i32, i32 }
%struct.RangeTblEntry = type { i32, ptr, ptr, i32, i32, i8, i8, i32, i32, ptr, ptr, i8, i32, i32, ptr, ptr, ptr, ptr, ptr, i8, ptr, ptr, ptr, i32, i8, ptr, ptr, ptr, ptr, double, ptr, i8, i8, ptr }

@.str.2 = private unnamed_addr constant [46 x i8] c"materialized view \22%s\22 has not been populated\00", align 1
@.str.3 = private unnamed_addr constant [43 x i8] c"Use the REFRESH MATERIALIZED VIEW command.\00", align 1
@.str.4 = private unnamed_addr constant [12 x i8] c"execUtils.c\00", align 1
@__func__.ExecOpenScanRelation = private unnamed_addr constant [21 x i8] c"ExecOpenScanRelation\00", align 1
@ParallelWorkerNumber = external global i32, align 4

; Function Attrs: inlinehint nounwind uwtable
define internal ptr @list_nth_cell(ptr noundef %0, i32 noundef %1) #3 {
  %3 = alloca ptr, align 8
  %4 = alloca i32, align 4
  store ptr %0, ptr %3, align 8
  store i32 %1, ptr %4, align 4
  %5 = load ptr, ptr %3, align 8
  %6 = getelementptr inbounds nuw %struct.List, ptr %5, i32 0, i32 3
  %7 = load ptr, ptr %6, align 8
  %8 = load i32, ptr %4, align 4
  %9 = sext i32 %8 to i64
  %10 = getelementptr inbounds %union.ListCell, ptr %7, i64 %9
  ret ptr %10
}

; Function Attrs: inlinehint nounwind uwtable
define internal ptr @list_nth(ptr noundef %0, i32 noundef %1) #3 {
  %3 = alloca ptr, align 8
  %4 = alloca i32, align 4
  store ptr %0, ptr %3, align 8
  store i32 %1, ptr %4, align 4
  %5 = load ptr, ptr %3, align 8
  %6 = load i32, ptr %4, align 4
  %7 = call ptr @list_nth_cell(ptr noundef %5, i32 noundef %6)
  %8 = load ptr, ptr %7, align 8
  ret ptr %8
}

; Function Attrs: inlinehint nounwind uwtable
define internal ptr @exec_rt_fetch(i32 noundef %0, ptr noundef %1) #3 {
  %3 = alloca i32, align 4
  %4 = alloca ptr, align 8
  store i32 %0, ptr %3, align 4
  store ptr %1, ptr %4, align 8
  %5 = load ptr, ptr %4, align 8
  %6 = getelementptr inbounds nuw %struct.EState, ptr %5, i32 0, i32 4
  %7 = load ptr, ptr %6, align 8
  %8 = load i32, ptr %3, align 4
  %9 = sub i32 %8, 1
  %10 = call ptr @list_nth(ptr noundef %7, i32 noundef %9)
  ret ptr %10
}

; Function Attrs: nounwind uwtable
define dso_local ptr @ExecGetRangeTableRelation(ptr noundef %0, i32 noundef %1) #0 {
  %3 = alloca ptr, align 8
  %4 = alloca i32, align 4
  %5 = alloca ptr, align 8
  %6 = alloca ptr, align 8
  store ptr %0, ptr %3, align 8
  store i32 %1, ptr %4, align 4
  call void @llvm.lifetime.start.p0(i64 8, ptr %5) #6
  %7 = load ptr, ptr %3, align 8
  %8 = getelementptr inbounds nuw %struct.EState, ptr %7, i32 0, i32 6
  %9 = load ptr, ptr %8, align 8
  %10 = load i32, ptr %4, align 4
  %11 = sub i32 %10, 1
  %12 = zext i32 %11 to i64
  %13 = getelementptr inbounds nuw ptr, ptr %9, i64 %12
  %14 = load ptr, ptr %13, align 8
  store ptr %14, ptr %5, align 8
  %15 = load ptr, ptr %5, align 8
  %16 = icmp eq ptr %15, null
  br i1 %16, label %17, label %45

17:                                               ; preds = %2
  call void @llvm.lifetime.start.p0(i64 8, ptr %6) #6
  %18 = load i32, ptr %4, align 4
  %19 = load ptr, ptr %3, align 8
  %20 = call ptr @exec_rt_fetch(i32 noundef %18, ptr noundef %19)
  store ptr %20, ptr %6, align 8
  %21 = load i32, ptr @ParallelWorkerNumber, align 4
  %22 = icmp sge i32 %21, 0
  br i1 %22, label %28, label %23

23:                                               ; preds = %17
  %24 = load ptr, ptr %6, align 8
  %25 = getelementptr inbounds nuw %struct.RangeTblEntry, ptr %24, i32 0, i32 4
  %26 = load i32, ptr %25, align 4
  %27 = call ptr @table_open(i32 noundef %26, i32 noundef 0)
  store ptr %27, ptr %5, align 8
  br label %36

28:                                               ; preds = %17
  %29 = load ptr, ptr %6, align 8
  %30 = getelementptr inbounds nuw %struct.RangeTblEntry, ptr %29, i32 0, i32 4
  %31 = load i32, ptr %30, align 4
  %32 = load ptr, ptr %6, align 8
  %33 = getelementptr inbounds nuw %struct.RangeTblEntry, ptr %32, i32 0, i32 7
  %34 = load i32, ptr %33, align 4
  %35 = call ptr @table_open(i32 noundef %31, i32 noundef %34)
  store ptr %35, ptr %5, align 8
  br label %36

36:                                               ; preds = %28, %23
  %37 = load ptr, ptr %5, align 8
  %38 = load ptr, ptr %3, align 8
  %39 = getelementptr inbounds nuw %struct.EState, ptr %38, i32 0, i32 6
  %40 = load ptr, ptr %39, align 8
  %41 = load i32, ptr %4, align 4
  %42 = sub i32 %41, 1
  %43 = zext i32 %42 to i64
  %44 = getelementptr inbounds nuw ptr, ptr %40, i64 %43
  store ptr %37, ptr %44, align 8
  call void @llvm.lifetime.end.p0(i64 8, ptr %6) #6
  br label %45

45:                                               ; preds = %36, %2
  %46 = load ptr, ptr %5, align 8
  call void @llvm.lifetime.end.p0(i64 8, ptr %5) #6
  ret ptr %46
}

; Function Attrs: nounwind uwtable
define dso_local ptr @ExecOpenScanRelation(ptr noundef %0, i32 noundef %1, i32 noundef %2) #0 {
  %4 = alloca ptr, align 8
  %5 = alloca i32, align 4
  %6 = alloca i32, align 4
  %7 = alloca ptr, align 8
  store ptr %0, ptr %4, align 8
  store i32 %1, ptr %5, align 4
  store i32 %2, ptr %6, align 4
  call void @llvm.lifetime.start.p0(i64 8, ptr %7) #6
  %8 = load ptr, ptr %4, align 8
  %9 = load i32, ptr %5, align 4
  %10 = call ptr @ExecGetRangeTableRelation(ptr noundef %8, i32 noundef %9)
  store ptr %10, ptr %7, align 8
  %11 = load i32, ptr %6, align 4
  %12 = and i32 %11, 65
  %13 = icmp eq i32 %12, 0
  br i1 %13, label %14, label %40

14:                                               ; preds = %3
  %15 = load ptr, ptr %7, align 8
  %16 = getelementptr inbounds nuw %struct.RelationData, ptr %15, i32 0, i32 13
  %17 = load ptr, ptr %16, align 8
  %18 = getelementptr inbounds nuw %struct.FormData_pg_class, ptr %17, i32 0, i32 24
  %19 = load i8, ptr %18, align 1, !range !6, !noundef !7
  %20 = trunc i8 %19 to i1
  br i1 %20, label %40, label %21

21:                                               ; preds = %14
  br label %22

22:                                               ; preds = %21
  br i1 true, label %23, label %25

23:                                               ; preds = %22
  %24 = call zeroext i1 @errstart_cold(i32 noundef 21, ptr noundef null) #7
  br i1 %24, label %27, label %37

25:                                               ; preds = %22
  %26 = call zeroext i1 @errstart(i32 noundef 21, ptr noundef null)
  br i1 %26, label %27, label %37

27:                                               ; preds = %25, %23
  %28 = call i32 @errcode(i32 noundef 325)
  %29 = load ptr, ptr %7, align 8
  %30 = getelementptr inbounds nuw %struct.RelationData, ptr %29, i32 0, i32 13
  %31 = load ptr, ptr %30, align 8
  %32 = getelementptr inbounds nuw %struct.FormData_pg_class, ptr %31, i32 0, i32 1
  %33 = getelementptr inbounds nuw %struct.nameData, ptr %32, i32 0, i32 0
  %34 = getelementptr inbounds [64 x i8], ptr %33, i64 0, i64 0
  %35 = call i32 (ptr, ...) @errmsg(ptr noundef @.str.2, ptr noundef %34)
  %36 = call i32 (ptr, ...) @errhint(ptr noundef @.str.3)
  call void @errfinish(ptr noundef @.str.4, i32 noundef 761, ptr noundef @__func__.ExecOpenScanRelation)
  br label %37

37:                                               ; preds = %27, %25, %23
  unreachable

38:                                               ; No predecessors!
  br label %39

39:                                               ; preds = %38
  br label %40

40:                                               ; preds = %39, %14, %3
  %41 = load ptr, ptr %7, align 8
  call void @llvm.lifetime.end.p0(i64 8, ptr %7) #6
  ret ptr %41
}