; Function Attrs: nounwind uwtable
define dso_local ptr @ExecOpenScanRelation(ptr noundef readonly captures(none) %0, i32 noundef %1, i32 noundef %2) local_unnamed_addr #0 {
  %4 = getelementptr inbounds nuw i8, ptr %0, i64 40
  %5 = load ptr, ptr %4, align 8
  %6 = add i32 %1, -1
  %7 = zext i32 %6 to i64
  %8 = getelementptr inbounds nuw ptr, ptr %5, i64 %7
  %9 = load ptr, ptr %8, align 8
  %10 = icmp eq ptr %9, null
  br i1 %10, label %11, label %ExecGetRangeTableRelation.exit

11:                                               ; preds = %3
  %12 = getelementptr i8, ptr %0, i64 24
  %.val.i = load ptr, ptr %12, align 8
  %13 = getelementptr i8, ptr %.val.i, i64 16
  %.val.val.i = load ptr, ptr %13, align 8
  %14 = sext i32 %6 to i64
  %15 = getelementptr inbounds %union.ListCell, ptr %.val.val.i, i64 %14
  %16 = load ptr, ptr %15, align 8
  %17 = load i32, ptr @ParallelWorkerNumber, align 4
  %18 = icmp sgt i32 %17, -1
  %19 = getelementptr inbounds nuw i8, ptr %16, i64 28
  %20 = load i32, ptr %19, align 4
  br i1 %18, label %21, label %24

21:                                               ; preds = %11
  %22 = getelementptr inbounds nuw i8, ptr %16, i64 36
  %23 = load i32, ptr %22, align 4
  br label %24

24:                                               ; preds = %21, %11
  %.sink.i = phi i32 [ %23, %21 ], [ 0, %11 ]
  %25 = tail call ptr @table_open(i32 noundef %20, i32 noundef %.sink.i) #12
  %26 = load ptr, ptr %4, align 8
  %27 = getelementptr inbounds nuw ptr, ptr %26, i64 %7
  store ptr %25, ptr %27, align 8
  br label %ExecGetRangeTableRelation.exit

ExecGetRangeTableRelation.exit:                   ; preds = %3, %24
  %.0.i = phi ptr [ %25, %24 ], [ %9, %3 ]
  %28 = and i32 %2, 65
  %29 = icmp eq i32 %28, 0
  br i1 %29, label %30, label %43

30:                                               ; preds = %ExecGetRangeTableRelation.exit
  %31 = getelementptr inbounds nuw i8, ptr %.0.i, i64 56
  %32 = load ptr, ptr %31, align 8
  %33 = getelementptr inbounds nuw i8, ptr %32, i64 125
  %34 = load i8, ptr %33, align 1, !range !8, !noundef !9
  %35 = trunc nuw i8 %34 to i1
  br i1 %35, label %43, label %36

36:                                               ; preds = %30
  %37 = tail call zeroext i1 @errstart_cold(i32 noundef 21, ptr noundef null) #13
  tail call void @llvm.assume(i1 %37)
  %38 = tail call i32 @errcode(i32 noundef 325) #12
  %39 = load ptr, ptr %31, align 8
  %40 = getelementptr inbounds nuw i8, ptr %39, i64 4
  %41 = tail call i32 (ptr, ...) @errmsg(ptr noundef nonnull @.str.2, ptr noundef nonnull %40) #12
  %42 = tail call i32 (ptr, ...) @errhint(ptr noundef nonnull @.str.3) #12
  tail call void @errfinish(ptr noundef nonnull @.str.4, i32 noundef 761, ptr noundef nonnull @__func__.ExecOpenScanRelation) #12
  unreachable

43:                                               ; preds = %30, %ExecGetRangeTableRelation.exit
  ret ptr %.0.i
}